; ModuleID = '60/592.c'
source_filename = "60/592.c"
target datalayout = "e-m:e-p270:32:32-p271:32:32-p272:64:64-i64:64-f80:128-n8:16:32:64-S128"
target triple = "x86_64-pc-linux-gnu"

@.str = private unnamed_addr constant [3 x i8] c"%d\00", align 1
@.str.1 = private unnamed_addr constant [7 x i8] c"%d %d\0A\00", align 1
@.str.2 = private unnamed_addr constant [6 x i8] c"empty\00", align 1

; Function Attrs: noinline nounwind uwtable
define dso_local i32 @main() #0 {
  %1 = alloca i32, align 4
  %2 = alloca i32, align 4
  %3 = alloca i32, align 4
  %4 = alloca i32, align 4
  %5 = alloca i32, align 4
  %6 = alloca i32, align 4
  %7 = alloca i32, align 4
  %8 = alloca i32, align 4
  %9 = alloca i8*, align 8
  %10 = alloca i64, align 8
  %11 = alloca i64, align 8
  store i32 0, i32* %1, align 4
  store i32 0, i32* %3, align 4
  store i32 0, i32* %8, align 4
  %12 = call i32 (i8*, ...) @__isoc99_scanf(i8* getelementptr inbounds ([3 x i8], [3 x i8]* @.str, i64 0, i64 0), i32* %2)
  %13 = load i32, i32* %2, align 4
  %14 = zext i32 %13 to i64
  %15 = call i8* @llvm.stacksave()
  store i8* %15, i8** %9, align 8
  %16 = alloca i32, i64 %14, align 16
  store i64 %14, i64* %10, align 8
  %17 = load i32, i32* %2, align 4
  %18 = zext i32 %17 to i64
  %19 = alloca i32, i64 %18, align 16
  store i64 %18, i64* %11, align 8
  store i32 2, i32* %6, align 4
  br label %20

20:                                               ; preds = %67, %0
  %21 = load i32, i32* %6, align 4
  %22 = load i32, i32* %2, align 4
  %23 = icmp sle i32 %21, %22
  br i1 %23, label %24, label %70

24:                                               ; preds = %20
  %25 = load i32, i32* %6, align 4
  %26 = sub nsw i32 %25, 2
  %27 = sext i32 %26 to i64
  %28 = getelementptr inbounds i32, i32* %19, i64 %27
  store i32 0, i32* %28, align 4
  store i32 2, i32* %7, align 4
  br label %29

29:                                               ; preds = %49, %24
  %30 = load i32, i32* %7, align 4
  %31 = sitofp i32 %30 to double
  %32 = load i32, i32* %6, align 4
  %33 = sitofp i32 %32 to double
  %34 = call double @sqrt(double %33) #2
  %35 = fcmp ole double %31, %34
  br i1 %35, label %36, label %52

36:                                               ; preds = %29
  %37 = load i32, i32* %6, align 4
  %38 = load i32, i32* %7, align 4
  %39 = srem i32 %37, %38
  %40 = icmp eq i32 %39, 0
  br i1 %40, label %41, label %48

41:                                               ; preds = %36
  %42 = load i32, i32* %6, align 4
  %43 = sub nsw i32 %42, 2
  %44 = sext i32 %43 to i64
  %45 = getelementptr inbounds i32, i32* %19, i64 %44
  %46 = load i32, i32* %45, align 4
  %47 = add nsw i32 %46, 1
  store i32 %47, i32* %45, align 4
  br label %48

48:                                               ; preds = %41, %36
  br label %49

49:                                               ; preds = %48
  %50 = load i32, i32* %7, align 4
  %51 = add nsw i32 %50, 1
  store i32 %51, i32* %7, align 4
  br label %29

52:                                               ; preds = %29
  %53 = load i32, i32* %6, align 4
  %54 = sub nsw i32 %53, 2
  %55 = sext i32 %54 to i64
  %56 = getelementptr inbounds i32, i32* %19, i64 %55
  %57 = load i32, i32* %56, align 4
  %58 = icmp eq i32 %57, 0
  br i1 %58, label %59, label %66

59:                                               ; preds = %52
  %60 = load i32, i32* %6, align 4
  %61 = load i32, i32* %3, align 4
  %62 = sext i32 %61 to i64
  %63 = getelementptr inbounds i32, i32* %16, i64 %62
  store i32 %60, i32* %63, align 4
  %64 = load i32, i32* %3, align 4
  %65 = add nsw i32 %64, 1
  store i32 %65, i32* %3, align 4
  br label %66

66:                                               ; preds = %59, %52
  br label %67

67:                                               ; preds = %66
  %68 = load i32, i32* %6, align 4
  %69 = add nsw i32 %68, 1
  store i32 %69, i32* %6, align 4
  br label %20

70:                                               ; preds = %20
  store i32 0, i32* %5, align 4
  br label %71

71:                                               ; preds = %102, %70
  %72 = load i32, i32* %5, align 4
  %73 = load i32, i32* %2, align 4
  %74 = icmp slt i32 %72, %73
  br i1 %74, label %75, label %105

75:                                               ; preds = %71
  %76 = load i32, i32* %5, align 4
  %77 = add nsw i32 %76, 1
  %78 = sext i32 %77 to i64
  %79 = getelementptr inbounds i32, i32* %16, i64 %78
  %80 = load i32, i32* %79, align 4
  %81 = load i32, i32* %5, align 4
  %82 = sext i32 %81 to i64
  %83 = getelementptr inbounds i32, i32* %16, i64 %82
  %84 = load i32, i32* %83, align 4
  %85 = sub nsw i32 %80, %84
  store i32 %85, i32* %4, align 4
  %86 = load i32, i32* %4, align 4
  %87 = icmp eq i32 %86, 2
  br i1 %87, label %88, label %101

88:                                               ; preds = %75
  %89 = load i32, i32* %5, align 4
  %90 = sext i32 %89 to i64
  %91 = getelementptr inbounds i32, i32* %16, i64 %90
  %92 = load i32, i32* %91, align 4
  %93 = load i32, i32* %5, align 4
  %94 = add nsw i32 %93, 1
  %95 = sext i32 %94 to i64
  %96 = getelementptr inbounds i32, i32* %16, i64 %95
  %97 = load i32, i32* %96, align 4
  %98 = call i32 (i8*, ...) @printf(i8* getelementptr inbounds ([7 x i8], [7 x i8]* @.str.1, i64 0, i64 0), i32 %92, i32 %97)
  %99 = load i32, i32* %8, align 4
  %100 = add nsw i32 %99, 1
  store i32 %100, i32* %8, align 4
  br label %101

101:                                              ; preds = %88, %75
  br label %102

102:                                              ; preds = %101
  %103 = load i32, i32* %5, align 4
  %104 = add nsw i32 %103, 1
  store i32 %104, i32* %5, align 4
  br label %71

105:                                              ; preds = %71
  %106 = load i32, i32* %8, align 4
  %107 = icmp eq i32 %106, 0
  br i1 %107, label %108, label %110

108:                                              ; preds = %105
  %109 = call i32 (i8*, ...) @printf(i8* getelementptr inbounds ([6 x i8], [6 x i8]* @.str.2, i64 0, i64 0))
  br label %110

110:                                              ; preds = %108, %105
  %111 = call i32 @getchar()
  %112 = call i32 @getchar()
  %113 = call i32 @getchar()
  %114 = call i32 @getchar()
  %115 = call i32 @getchar()
  %116 = call i32 @getchar()
  %117 = call i32 @getchar()
  %118 = call i32 @getchar()
  %119 = call i32 @getchar()
  %120 = call i32 @getchar()
  %121 = call i32 @getchar()
  %122 = call i32 @getchar()
  %123 = call i32 @getchar()
  %124 = call i32 @getchar()
  %125 = load i8*, i8** %9, align 8
  call void @llvm.stackrestore(i8* %125)
  %126 = load i32, i32* %1, align 4
  ret i32 %126
}

declare dso_local i32 @__isoc99_scanf(i8*, ...) #1

; Function Attrs: nounwind
declare i8* @llvm.stacksave() #2

; Function Attrs: nounwind
declare dso_local double @sqrt(double) #3

declare dso_local i32 @printf(i8*, ...) #1

declare dso_local i32 @getchar() #1

; Function Attrs: nounwind
declare void @llvm.stackrestore(i8*) #2


!llvm.module.flags = !{!0}
!llvm.ident = !{!1}

!0 = !{i32 1, !"wchar_size", i32 4}
!1 = !{!"clang version 10.0.0-4ubuntu1 "}
